target datalayout = "e-m:e-p270:32:32-p271:32:32-p272:64:64-i64:64-i128:128-f80:128-n8:16:32:64-S128"
target triple = "x86_64-pc-linux-gnu"

@hf_ansi_637_trans_bearer_reply_seq_num = internal global i32 0, align 4
@hf_ansi_637_reserved_bits_8_03 = internal global i32 0, align 4
@.str.429 = private unnamed_addr constant [30 x i8] c" - Reply Sequence Number (%u)\00", align 1

; Function Attrs: null_pointer_is_valid sspstrong uwtable
define internal void @trans_param_bearer_reply_opt(ptr noundef %0, ptr noundef %1, ptr noundef %2, i32 noundef %3, i32 noundef %4, ptr noundef %5, i32 noundef %6) #0 {
  %8 = alloca ptr, align 8
  %9 = alloca ptr, align 8
  %10 = alloca ptr, align 8
  %11 = alloca i32, align 4
  %12 = alloca i32, align 4
  %13 = alloca ptr, align 8
  %14 = alloca i32, align 4
  store ptr %0, ptr %8, align 8
  store ptr %1, ptr %9, align 8
  store ptr %2, ptr %10, align 8
  store i32 %3, ptr %11, align 4
  store i32 %4, ptr %12, align 4
  store ptr %5, ptr %13, align 8
  store i32 %6, ptr %14, align 4
  %15 = load ptr, ptr %10, align 8
  %16 = load i32, ptr @hf_ansi_637_trans_bearer_reply_seq_num, align 4
  %17 = load ptr, ptr %8, align 8
  %18 = load i32, ptr %12, align 4
  %19 = call ptr @proto_tree_add_item(ptr noundef %15, i32 noundef %16, ptr noundef %17, i32 noundef %18, i32 noundef 1, i32 noundef 0)
  %20 = load ptr, ptr %10, align 8
  %21 = load i32, ptr @hf_ansi_637_reserved_bits_8_03, align 4
  %22 = load ptr, ptr %8, align 8
  %23 = load i32, ptr %12, align 4
  %24 = call ptr @proto_tree_add_item(ptr noundef %20, i32 noundef %21, ptr noundef %22, i32 noundef %23, i32 noundef 1, i32 noundef 0)
  %25 = load ptr, ptr %13, align 8
  %26 = load i32, ptr %14, align 4
  %27 = sext i32 %26 to i64
  %28 = load ptr, ptr %13, align 8
  %29 = call i64 @llvm.objectsize.i64.p0(ptr %28, i1 false, i1 true, i1 true)
  %30 = load ptr, ptr %8, align 8
  %31 = load i32, ptr %12, align 4
  %32 = call zeroext i8 @tvb_get_uint8(ptr noundef %30, i32 noundef %31)
  %33 = zext i8 %32 to i32
  %34 = and i32 %33, 252
  %35 = ashr i32 %34, 2
  %36 = call i32 (ptr, i64, i32, i64, ptr, ...) @__snprintf_chk(ptr noundef %25, i64 noundef %27, i32 noundef 2, i64 noundef %29, ptr noundef @.str.429, i32 noundef %35)
  ret void
}