; Function Attrs: null_pointer_is_valid sspstrong uwtable
define internal void @trans_param_bearer_reply_opt(ptr noundef %0, ptr readnone captures(none) %1, ptr noundef %2, i32 %3, i32 noundef %4, ptr noundef %5, i32 noundef %6) #0 {
  %8 = load i32, ptr @hf_ansi_637_trans_bearer_reply_seq_num, align 4
  %9 = tail call ptr @proto_tree_add_item(ptr noundef %2, i32 noundef %8, ptr noundef %0, i32 noundef %4, i32 noundef 1, i32 noundef 0)
  %10 = load i32, ptr @hf_ansi_637_reserved_bits_8_03, align 4
  %11 = tail call ptr @proto_tree_add_item(ptr noundef %2, i32 noundef %10, ptr noundef %0, i32 noundef %4, i32 noundef 1, i32 noundef 0)
  %12 = sext i32 %6 to i64
  %13 = tail call zeroext i8 @tvb_get_uint8(ptr noundef %0, i32 noundef %4)
  %14 = lshr i8 %13, 2
  %15 = zext nneg i8 %14 to i32
  %16 = tail call i32 (ptr, i64, i32, i64, ptr, ...) @__snprintf_chk(ptr noundef %5, i64 noundef %12, i32 noundef 2, i64 noundef -1, ptr noundef nonnull @.str.429, i32 noundef %15)
  ret void
}